target datalayout = "e-m:e-p270:32:32-p271:32:32-p272:64:64-i64:64-i128:128-f80:128-n8:16:32:64-S128"
target triple = "x86_64-pc-linux-gnu"

%struct.OutputPluginCallbacks = type { ptr, ptr, ptr, ptr, ptr, ptr, ptr, ptr, ptr, ptr, ptr, ptr, ptr, ptr, ptr, ptr, ptr, ptr, ptr, ptr, ptr }
%struct.LogicalDecodingContext = type { ptr, ptr, ptr, ptr, ptr, i8, %struct.OutputPluginCallbacks, %struct.OutputPluginOptions, ptr, ptr, ptr, ptr, ptr, ptr, ptr, i8, i8, i8, i8, i8, i64, i32, i8, i8 }
%struct.OutputPluginOptions = type { i32, i8 }
%struct.PGOutputData = type { ptr, ptr, ptr, i8, i32, ptr, ptr, i8, i8, i8, i8, i8 }
%struct.ReorderBufferTXN = type { i32, i32, i32, ptr, i64, i64, i64, ptr, i64, i16, i64, %union.anon, ptr, i64, %struct.dlist_node, ptr, i32, i64, i64, %struct.dlist_head, %struct.dlist_head, i64, ptr, ptr, %struct.dlist_head, i32, i32, ptr, %struct.dlist_node, %struct.dlist_node, %struct.pairingheap_node, i64, i64, ptr }
%union.anon = type { i64 }
%struct.dlist_head = type { %struct.dlist_node }
%struct.dlist_node = type { ptr, ptr }
%struct.pairingheap_node = type { ptr, ptr, ptr }
%struct.RelationSyncEntry = type { i32, i8, i8, i32, ptr, %struct.PublicationActions, [3 x ptr], ptr, ptr, ptr, i32, ptr, ptr, ptr }
%struct.PublicationActions = type { i8, i8, i8, i8 }
%struct.ForEachState = type { ptr, i32 }
%struct.List = type { i32, i32, i32, ptr, [0 x %union.ListCell] }
%union.ListCell = type { ptr }
%struct.HASH_SEQ_STATUS = type { ptr, i32, ptr, i8, i32 }

@RelationSyncCache = internal global ptr null, align 8

; Function Attrs: nounwind uwtable
define internal void @cleanup_rel_sync_cache(i32 noundef %0, i1 noundef zeroext %1) #0 {
  %3 = alloca i32, align 4
  %4 = alloca i8, align 1
  %5 = alloca %struct.HASH_SEQ_STATUS, align 8
  %6 = alloca ptr, align 8
  %7 = alloca i32, align 4
  %8 = alloca i32, align 4
  %9 = alloca i32, align 4
  %10 = alloca %struct.ForEachState, align 8
  store i32 %0, ptr %3, align 4
  %11 = zext i1 %1 to i8
  store i8 %11, ptr %4, align 1
  call void @llvm.lifetime.start.p0(i64 32, ptr %5) #10
  call void @llvm.lifetime.start.p0(i64 8, ptr %6) #10
  %12 = load ptr, ptr @RelationSyncCache, align 8
  call void @hash_seq_init(ptr noundef %5, ptr noundef %12)
  br label %13

13:                                               ; preds = %82, %2
  %14 = call ptr @hash_seq_search(ptr noundef %5)
  store ptr %14, ptr %6, align 8
  %15 = icmp ne ptr %14, null
  br i1 %15, label %16, label %83

16:                                               ; preds = %13
  call void @llvm.lifetime.start.p0(i64 4, ptr %7) #10
  store i32 0, ptr %7, align 4
  call void @llvm.lifetime.start.p0(i64 4, ptr %8) #10
  store i32 1, ptr %8, align 4
  br label %17

17:                                               ; preds = %81, %16
  %18 = load i32, ptr %8, align 4
  %19 = icmp ne i32 %18, 0
  br i1 %19, label %21, label %20

20:                                               ; preds = %17
  store i32 4, ptr %9, align 4
  call void @llvm.lifetime.end.p0(i64 4, ptr %8) #10
  call void @llvm.lifetime.end.p0(i64 4, ptr %7) #10
  br label %82

21:                                               ; preds = %17
  call void @llvm.lifetime.start.p0(i64 16, ptr %10) #10
  %22 = getelementptr inbounds nuw %struct.ForEachState, ptr %10, i32 0, i32 0
  %23 = load ptr, ptr %6, align 8
  %24 = getelementptr inbounds nuw %struct.RelationSyncEntry, ptr %23, i32 0, i32 4
  %25 = load ptr, ptr %24, align 8
  store ptr %25, ptr %22, align 8
  %26 = getelementptr inbounds nuw %struct.ForEachState, ptr %10, i32 0, i32 1
  store i32 0, ptr %26, align 8
  %27 = getelementptr i8, ptr %10, i64 12
  call void @llvm.memset.p0.i64(ptr align 4 %27, i8 0, i64 4, i1 false)
  br label %28

28:                                               ; preds = %75, %21
  %29 = getelementptr inbounds nuw %struct.ForEachState, ptr %10, i32 0, i32 0
  %30 = load ptr, ptr %29, align 8
  %31 = icmp ne ptr %30, null
  br i1 %31, label %32, label %50

32:                                               ; preds = %28
  %33 = getelementptr inbounds nuw %struct.ForEachState, ptr %10, i32 0, i32 1
  %34 = load i32, ptr %33, align 8
  %35 = getelementptr inbounds nuw %struct.ForEachState, ptr %10, i32 0, i32 0
  %36 = load ptr, ptr %35, align 8
  %37 = getelementptr inbounds nuw %struct.List, ptr %36, i32 0, i32 1
  %38 = load i32, ptr %37, align 4
  %39 = icmp slt i32 %34, %38
  br i1 %39, label %40, label %50

40:                                               ; preds = %32
  %41 = getelementptr inbounds nuw %struct.ForEachState, ptr %10, i32 0, i32 0
  %42 = load ptr, ptr %41, align 8
  %43 = getelementptr inbounds nuw %struct.List, ptr %42, i32 0, i32 3
  %44 = load ptr, ptr %43, align 8
  %45 = getelementptr inbounds nuw %struct.ForEachState, ptr %10, i32 0, i32 1
  %46 = load i32, ptr %45, align 8
  %47 = sext i32 %46 to i64
  %48 = getelementptr inbounds %union.ListCell, ptr %44, i64 %47
  %49 = load i32, ptr %48, align 8
  store i32 %49, ptr %7, align 4
  br label %50

50:                                               ; preds = %40, %32, %28
  %51 = phi i1 [ false, %32 ], [ false, %28 ], [ true, %40 ]
  br i1 %51, label %53, label %52

52:                                               ; preds = %50
  store i32 7, ptr %9, align 4
  br label %79

53:                                               ; preds = %50
  %54 = load i32, ptr %3, align 4
  %55 = load i32, ptr %7, align 4
  %56 = icmp eq i32 %54, %55
  br i1 %56, label %57, label %74

57:                                               ; preds = %53
  %58 = load i8, ptr %4, align 1, !range !3, !noundef !4
  %59 = trunc i8 %58 to i1
  br i1 %59, label %60, label %63

60:                                               ; preds = %57
  %61 = load ptr, ptr %6, align 8
  %62 = getelementptr inbounds nuw %struct.RelationSyncEntry, ptr %61, i32 0, i32 2
  store i8 1, ptr %62, align 1
  br label %63

63:                                               ; preds = %60, %57
  %64 = load ptr, ptr %6, align 8
  %65 = getelementptr inbounds nuw %struct.RelationSyncEntry, ptr %64, i32 0, i32 4
  %66 = load ptr, ptr %65, align 8
  %67 = getelementptr inbounds nuw %struct.ForEachState, ptr %10, i32 0, i32 1
  %68 = load i32, ptr %67, align 8
  %69 = add i32 %68, -1
  store i32 %69, ptr %67, align 8
  %70 = call ptr @list_delete_nth_cell(ptr noundef %66, i32 noundef %68)
  %71 = getelementptr inbounds nuw %struct.ForEachState, ptr %10, i32 0, i32 0
  store ptr %70, ptr %71, align 8
  %72 = load ptr, ptr %6, align 8
  %73 = getelementptr inbounds nuw %struct.RelationSyncEntry, ptr %72, i32 0, i32 4
  store ptr %70, ptr %73, align 8
  store i32 7, ptr %9, align 4
  br label %79

74:                                               ; preds = %53
  br label %75

75:                                               ; preds = %74
  %76 = getelementptr inbounds nuw %struct.ForEachState, ptr %10, i32 0, i32 1
  %77 = load i32, ptr %76, align 8
  %78 = add i32 %77, 1
  store i32 %78, ptr %76, align 8
  br label %28, !llvm.loop !22

79:                                               ; preds = %63, %52
  call void @llvm.lifetime.end.p0(i64 16, ptr %10) #10
  br label %80

80:                                               ; preds = %79
  br label %81

81:                                               ; preds = %80
  store i32 0, ptr %8, align 4
  br label %17, !llvm.loop !23

82:                                               ; preds = %20
  br label %13, !llvm.loop !24

83:                                               ; preds = %13
  call void @llvm.lifetime.end.p0(i64 8, ptr %6) #10
  call void @llvm.lifetime.end.p0(i64 32, ptr %5) #10
  ret void
}

; Function Attrs: nounwind uwtable
define internal void @pgoutput_stream_abort(ptr noundef %0, ptr noundef %1, i64 noundef %2) #0 {
  %4 = alloca ptr, align 8
  %5 = alloca ptr, align 8
  %6 = alloca i64, align 8
  %7 = alloca ptr, align 8
  %8 = alloca ptr, align 8
  %9 = alloca i8, align 1
  store ptr %0, ptr %4, align 8
  store ptr %1, ptr %5, align 8
  store i64 %2, ptr %6, align 8
  call void @llvm.lifetime.start.p0(i64 8, ptr %7) #10
  call void @llvm.lifetime.start.p0(i64 8, ptr %8) #10
  %10 = load ptr, ptr %4, align 8
  %11 = getelementptr inbounds nuw %struct.LogicalDecodingContext, ptr %10, i32 0, i32 13
  %12 = load ptr, ptr %11, align 8
  store ptr %12, ptr %8, align 8
  call void @llvm.lifetime.start.p0(i64 1, ptr %9) #10
  %13 = load ptr, ptr %8, align 8
  %14 = getelementptr inbounds nuw %struct.PGOutputData, ptr %13, i32 0, i32 8
  %15 = load i8, ptr %14, align 1
  %16 = sext i8 %15 to i32
  %17 = icmp eq i32 %16, 112
  %18 = zext i1 %17 to i8
  store i8 %18, ptr %9, align 1
  %19 = load ptr, ptr %5, align 8
  %20 = getelementptr inbounds nuw %struct.ReorderBufferTXN, ptr %19, i32 0, i32 7
  %21 = load ptr, ptr %20, align 8
  %22 = icmp ne ptr %21, null
  br i1 %22, label %23, label %27

23:                                               ; preds = %3
  %24 = load ptr, ptr %5, align 8
  %25 = getelementptr inbounds nuw %struct.ReorderBufferTXN, ptr %24, i32 0, i32 7
  %26 = load ptr, ptr %25, align 8
  br label %29

27:                                               ; preds = %3
  %28 = load ptr, ptr %5, align 8
  br label %29

29:                                               ; preds = %27, %23
  %30 = phi ptr [ %26, %23 ], [ %28, %27 ]
  store ptr %30, ptr %7, align 8
  %31 = load ptr, ptr %4, align 8
  call void @OutputPluginPrepareWrite(ptr noundef %31, i1 noundef zeroext true)
  %32 = load ptr, ptr %4, align 8
  %33 = getelementptr inbounds nuw %struct.LogicalDecodingContext, ptr %32, i32 0, i32 12
  %34 = load ptr, ptr %33, align 8
  %35 = load ptr, ptr %7, align 8
  %36 = getelementptr inbounds nuw %struct.ReorderBufferTXN, ptr %35, i32 0, i32 1
  %37 = load i32, ptr %36, align 4
  %38 = load ptr, ptr %5, align 8
  %39 = getelementptr inbounds nuw %struct.ReorderBufferTXN, ptr %38, i32 0, i32 1
  %40 = load i32, ptr %39, align 4
  %41 = load i64, ptr %6, align 8
  %42 = load ptr, ptr %5, align 8
  %43 = getelementptr inbounds nuw %struct.ReorderBufferTXN, ptr %42, i32 0, i32 11
  %44 = load i64, ptr %43, align 8
  %45 = load i8, ptr %9, align 1, !range !3, !noundef !4
  %46 = trunc i8 %45 to i1
  call void @logicalrep_write_stream_abort(ptr noundef %34, i32 noundef %37, i32 noundef %40, i64 noundef %41, i64 noundef %44, i1 noundef zeroext %46)
  %47 = load ptr, ptr %4, align 8
  call void @OutputPluginWrite(ptr noundef %47, i1 noundef zeroext true)
  %48 = load ptr, ptr %7, align 8
  %49 = getelementptr inbounds nuw %struct.ReorderBufferTXN, ptr %48, i32 0, i32 1
  %50 = load i32, ptr %49, align 4
  call void @cleanup_rel_sync_cache(i32 noundef %50, i1 noundef zeroext false)
  call void @llvm.lifetime.end.p0(i64 1, ptr %9) #10
  call void @llvm.lifetime.end.p0(i64 8, ptr %8) #10
  call void @llvm.lifetime.end.p0(i64 8, ptr %7) #10
  ret void
}