; Function Attrs: nounwind uwtable
define internal void @pgoutput_stream_abort(ptr noundef %0, ptr noundef readonly captures(none) %1, i64 noundef %2) #2 {
  %4 = alloca %struct.HASH_SEQ_STATUS, align 8
  %5 = getelementptr inbounds nuw i8, ptr %0, i64 264
  %6 = load ptr, ptr %5, align 8
  %7 = getelementptr inbounds nuw i8, ptr %6, i64 49
  %8 = load i8, ptr %7, align 1
  %9 = getelementptr inbounds nuw i8, ptr %1, i64 48
  %10 = load ptr, ptr %9, align 8
  %.not = icmp eq ptr %10, null
  %. = select i1 %.not, ptr %1, ptr %10
  %11 = icmp eq i8 %8, 112
  tail call void @OutputPluginPrepareWrite(ptr noundef %0, i1 noundef zeroext true) #13
  %12 = getelementptr inbounds nuw i8, ptr %0, i64 256
  %13 = load ptr, ptr %12, align 8
  %14 = getelementptr inbounds nuw i8, ptr %., i64 4
  %15 = load i32, ptr %14, align 4
  %16 = getelementptr inbounds nuw i8, ptr %1, i64 4
  %17 = load i32, ptr %16, align 4
  %18 = getelementptr inbounds nuw i8, ptr %1, i64 80
  %19 = load i64, ptr %18, align 8
  tail call void @logicalrep_write_stream_abort(ptr noundef %13, i32 noundef %15, i32 noundef %17, i64 noundef %2, i64 noundef %19, i1 noundef zeroext %11) #13
  tail call void @OutputPluginWrite(ptr noundef %0, i1 noundef zeroext true) #13
  %20 = load i32, ptr %14, align 4
  call void @llvm.lifetime.start.p0(i64 32, ptr nonnull %4) #13
  %21 = load ptr, ptr @RelationSyncCache, align 8
  call void @hash_seq_init(ptr noundef nonnull %4, ptr noundef %21) #13
  %22 = call ptr @hash_seq_search(ptr noundef nonnull %4) #13
  %.not23.i = icmp eq ptr %22, null
  br i1 %.not23.i, label %cleanup_rel_sync_cache.exit, label %.lr.ph24.split.i

.lr.ph24.split.i:                                 ; preds = %3, %.critedge17.i
  %23 = phi ptr [ %38, %.critedge17.i ], [ %22, %3 ]
  %24 = getelementptr inbounds nuw i8, ptr %23, i64 16
  %25 = load ptr, ptr %24, align 8
  %.not15.i = icmp eq ptr %25, null
  br i1 %.not15.i, label %.critedge17.i, label %.lr.ph.i

.lr.ph.i:                                         ; preds = %.lr.ph24.split.i
  %26 = getelementptr inbounds nuw i8, ptr %25, i64 4
  %27 = load i32, ptr %26, align 4
  %28 = icmp sgt i32 %27, 0
  br i1 %28, label %.lr.ph22.i, label %.critedge17.i

.lr.ph22.i:                                       ; preds = %.lr.ph.i
  %29 = getelementptr inbounds nuw i8, ptr %25, i64 16
  %30 = load ptr, ptr %29, align 8
  %wide.trip.count.i = zext nneg i32 %27 to i64
  br label %31

31:                                               ; preds = %37, %.lr.ph22.i
  %indvars.iv.i = phi i64 [ 0, %.lr.ph22.i ], [ %indvars.iv.next.i, %37 ]
  %32 = getelementptr inbounds nuw %union.ListCell, ptr %30, i64 %indvars.iv.i
  %33 = load i32, ptr %32, align 8
  %34 = icmp eq i32 %20, %33
  br i1 %34, label %.split.i, label %37

.split.i:                                         ; preds = %31
  %35 = trunc nuw nsw i64 %indvars.iv.i to i32
  %36 = call ptr @list_delete_nth_cell(ptr noundef nonnull %25, i32 noundef %35) #13
  store ptr %36, ptr %24, align 8
  br label %.critedge17.i

37:                                               ; preds = %31
  %indvars.iv.next.i = add nuw nsw i64 %indvars.iv.i, 1
  %exitcond.not.i = icmp eq i64 %indvars.iv.next.i, %wide.trip.count.i
  br i1 %exitcond.not.i, label %.critedge17.i, label %31

.critedge17.i:                                    ; preds = %37, %.split.i, %.lr.ph.i, %.lr.ph24.split.i
  %38 = call ptr @hash_seq_search(ptr noundef nonnull %4) #13
  %.not.i = icmp eq ptr %38, null
  br i1 %.not.i, label %cleanup_rel_sync_cache.exit, label %.lr.ph24.split.i, !llvm.loop !8

cleanup_rel_sync_cache.exit:                      ; preds = %.critedge17.i, %3
  call void @llvm.lifetime.end.p0(i64 32, ptr nonnull %4) #13
  ret void
}